---
triple:          'arm64-apple-darwin'
binary-path:     run.exe
relocations:
  - { offsetInCU: 0x44BE, offset: 0x44BE, size: 0x8, addend: 0x0, symName: __ZNSt3__124__put_character_sequenceB7v160006IcNS_11char_traitsIcEEEERNS_13basic_ostreamIT_T0_EES7_PKS4_m, symObjAddr: 0x1A94, symBinAddr: 0x1000042E8, symSize: 0x1F4 }
  - { offsetInCU: 0x6B01, offset: 0x6B01, size: 0x8, addend: 0x0, symName: __ZNSt3__1lsB7v160006INS_11char_traitsIcEEEERNS_13basic_ostreamIcT_EES6_PKc, symObjAddr: 0x24C, symBinAddr: 0x100002AA0, symSize: 0x48 }
  - { offsetInCU: 0x6B47, offset: 0x6B47, size: 0x8, addend: 0x0, symName: __ZNSt3__14endlB7v160006IcNS_11char_traitsIcEEEERNS_13basic_ostreamIT_T0_EES7_, symObjAddr: 0x2C0, symBinAddr: 0x100002B14, symSize: 0x58 }
  - { offsetInCU: 0x6B87, offset: 0x6B87, size: 0x8, addend: 0x0, symName: __ZNSt3__1rsB7v160006IcNS_11char_traitsIcEENS_9allocatorIcEEEERNS_13basic_istreamIT_T0_EES9_RNS_12basic_stringIS6_S7_T1_EE, symObjAddr: 0x854, symBinAddr: 0x1000030A8, symSize: 0x314 }
  - { offsetInCU: 0x6C54, offset: 0x6C54, size: 0x8, addend: 0x0, symName: __ZNSt3__17getlineB7v160006IcNS_11char_traitsIcEENS_9allocatorIcEEEERNS_13basic_istreamIT_T0_EES9_RNS_12basic_stringIS6_S7_T1_EE, symObjAddr: 0xB70, symBinAddr: 0x1000033C4, symSize: 0x5C }
  - { offsetInCU: 0x6CAC, offset: 0x6CAC, size: 0x8, addend: 0x0, symName: __ZNSt3__1lsB7v160006IcNS_11char_traitsIcEENS_9allocatorIcEEEERNS_13basic_ostreamIT_T0_EES9_RKNS_12basic_stringIS6_S7_T1_EE, symObjAddr: 0xC64, symBinAddr: 0x1000034B8, symSize: 0x4C }
  - { offsetInCU: 0x6D04, offset: 0x6D04, size: 0x8, addend: 0x0, symName: __ZNSt3__119__debug_db_insert_cB7v160006INS_12basic_stringIcNS_11char_traitsIcEENS_9allocatorIcEEEEEEvPT_, symObjAddr: 0xDF0, symBinAddr: 0x100003644, symSize: 0x10 }
  - { offsetInCU: 0x6D35, offset: 0x6D35, size: 0x8, addend: 0x0, symName: __ZNSt3__130__libcpp_is_constant_evaluatedB7v160006Ev, symObjAddr: 0xF90, symBinAddr: 0x1000037E4, symSize: 0xC }
  - { offsetInCU: 0x6D52, offset: 0x6D52, size: 0x8, addend: 0x0, symName: __ZNSt3__117__libcpp_allocateB7v160006Emm, symObjAddr: 0x1288, symBinAddr: 0x100003ADC, symSize: 0x28 }
  - { offsetInCU: 0x6D8F, offset: 0x6D8F, size: 0x8, addend: 0x0, symName: __ZNSt3__121__libcpp_operator_newB7v160006IJmEEEPvDpT_, symObjAddr: 0x12C4, symBinAddr: 0x100003B18, symSize: 0x24 }
  - { offsetInCU: 0x6DC8, offset: 0x6DC8, size: 0x8, addend: 0x0, symName: __ZNSt3__119__debug_db_insert_cB7v160006INS_6vectorI4TaskNS_9allocatorIS2_EEEEEEvPT_, symObjAddr: 0x1410, symBinAddr: 0x100003C64, symSize: 0x10 }
  - { offsetInCU: 0x6DF9, offset: 0x6DF9, size: 0x8, addend: 0x0, symName: __ZNSt3__118__debug_db_erase_cB7v160006INS_6vectorI4TaskNS_9allocatorIS2_EEEEEEvPT_, symObjAddr: 0x16E8, symBinAddr: 0x100003F3C, symSize: 0x10 }
  - { offsetInCU: 0x6E2A, offset: 0x6E2A, size: 0x8, addend: 0x0, symName: __ZNSt3__112__to_addressB7v160006I4TaskEEPT_S3_, symObjAddr: 0x1804, symBinAddr: 0x100004058, symSize: 0x14 }
  - { offsetInCU: 0x6E5F, offset: 0x6E5F, size: 0x8, addend: 0x0, symName: __ZNSt3__119__libcpp_deallocateB7v160006EPvmm, symObjAddr: 0x1980, symBinAddr: 0x1000041D4, symSize: 0x30 }
  - { offsetInCU: 0x6EA7, offset: 0x6EA7, size: 0x8, addend: 0x0, symName: __ZNSt3__127__do_deallocate_handle_sizeB7v160006IJEEEvPvmDpT_, symObjAddr: 0x19B0, symBinAddr: 0x100004204, symSize: 0x28 }
  - { offsetInCU: 0x6EE5, offset: 0x6EE5, size: 0x8, addend: 0x0, symName: __ZNSt3__124__libcpp_operator_deleteB7v160006IJPvEEEvDpT_, symObjAddr: 0x19D8, symBinAddr: 0x10000422C, symSize: 0x24 }
  - { offsetInCU: 0x6F1A, offset: 0x6F1A, size: 0x8, addend: 0x0, symName: __ZNSt3__116__pad_and_outputB7v160006IcNS_11char_traitsIcEEEENS_19ostreambuf_iteratorIT_T0_EES6_PKS4_S8_S8_RNS_8ios_baseES4_, symObjAddr: 0x1CEC, symBinAddr: 0x100004540, symSize: 0x248 }
  - { offsetInCU: 0x6FE9, offset: 0x6FE9, size: 0x8, addend: 0x0, symName: __ZNSt3__112__to_addressB7v160006IKcEEPT_S3_, symObjAddr: 0x216C, symBinAddr: 0x1000049C0, symSize: 0x14 }
  - { offsetInCU: 0x7051, offset: 0x7051, size: 0x8, addend: 0x0, symName: __ZNSt3__19use_facetB7v160006INS_5ctypeIcEEEERKT_RKNS_6localeE, symObjAddr: 0x243C, symBinAddr: 0x100004C90, symSize: 0x2C }
  - { offsetInCU: 0x7431, offset: 0x7431, size: 0x8, addend: 0x0, symName: __ZNSt3__118__constexpr_strlenB7v160006EPKc, symObjAddr: 0x24D4, symBinAddr: 0x100004D28, symSize: 0x24 }
  - { offsetInCU: 0x745D, offset: 0x745D, size: 0x8, addend: 0x0, symName: __ZNSt3__122__make_exception_guardB7v160006INS_6vectorI4TaskNS_9allocatorIS2_EEE16__destroy_vectorEEENS_28__exception_guard_exceptionsIT_EES8_, symObjAddr: 0x2684, symBinAddr: 0x100004ED8, symSize: 0x40 }
  - { offsetInCU: 0x7492, offset: 0x7492, size: 0x8, addend: 0x0, symName: __ZNSt3__119__allocate_at_leastB7v160006INS_9allocatorI4TaskEEEENS_19__allocation_resultINS_16allocator_traitsIT_E7pointerEEERS6_m, symObjAddr: 0x29D0, symBinAddr: 0x100005224, symSize: 0x40 }
  - { offsetInCU: 0x74D5, offset: 0x74D5, size: 0x8, addend: 0x0, symName: __ZNSt3__13minB7v160006ImEERKT_S3_S3_, symObjAddr: 0x2B00, symBinAddr: 0x100005354, symSize: 0x2C }
  - { offsetInCU: 0x7719, offset: 0x7719, size: 0x8, addend: 0x0, symName: __ZNSt3__13minB7v160006ImNS_6__lessImmEEEERKT_S5_S5_T0_, symObjAddr: 0x2B64, symBinAddr: 0x1000053B8, symSize: 0x54 }
  - { offsetInCU: 0x77AE, offset: 0x77AE, size: 0x8, addend: 0x0, symName: __ZNSt3__120__throw_length_errorB7v160006EPKc, symObjAddr: 0x2C14, symBinAddr: 0x100005468, symSize: 0x64 }
  - { offsetInCU: 0x77D6, offset: 0x77D6, size: 0x8, addend: 0x0, symName: __ZNSt3__130__uninitialized_allocator_copyB7v160006INS_9allocatorI4TaskEEPS2_S4_S4_EET2_RT_T0_T1_S5_, symObjAddr: 0x2DF8, symBinAddr: 0x10000564C, symSize: 0xFC }
  - { offsetInCU: 0x7874, offset: 0x7874, size: 0x8, addend: 0x0, symName: __ZNSt3__122__make_exception_guardB7v160006INS_29_AllocatorDestroyRangeReverseINS_9allocatorI4TaskEEPS3_EEEENS_28__exception_guard_exceptionsIT_EES8_, symObjAddr: 0x2F6C, symBinAddr: 0x1000057C0, symSize: 0x4C }
  - { offsetInCU: 0x78AA, offset: 0x78AA, size: 0x8, addend: 0x0, symName: __ZNSt3__119__allocator_destroyB7v160006INS_9allocatorI4TaskEENS_16reverse_iteratorIPS2_EES6_EEvRT_T0_T1_, symObjAddr: 0x32B0, symBinAddr: 0x100005B04, symSize: 0x70 }
  - { offsetInCU: 0x790D, offset: 0x790D, size: 0x8, addend: 0x0, symName: __ZNSt3__1neB7v160006IP4TaskS2_EEbRKNS_16reverse_iteratorIT_EERKNS3_IT0_EE, symObjAddr: 0x3354, symBinAddr: 0x100005BA8, symSize: 0x48 }
  - { offsetInCU: 0x7959, offset: 0x7959, size: 0x8, addend: 0x0, symName: __ZNSt3__112__to_addressB7v160006INS_16reverse_iteratorIP4TaskEEvEENS_5decayIDTclsr19__to_address_helperIT_EE6__callclsr3stdE7declvalIRKS6_EEEEE4typeES8_, symObjAddr: 0x339C, symBinAddr: 0x100005BF0, symSize: 0x24 }
  - { offsetInCU: 0x7F42, offset: 0x7F42, size: 0x8, addend: 0x0, symName: __ZNSt3__125__debug_db_invalidate_allB7v160006INS_12basic_stringIcNS_11char_traitsIcEENS_9allocatorIcEEEEEEvPT_, symObjAddr: 0x3888, symBinAddr: 0x1000060DC, symSize: 0x10 }
  - { offsetInCU: 0x81A8, offset: 0x81A8, size: 0x8, addend: 0x0, symName: __ZNSt3__17getlineB7v160006IcNS_11char_traitsIcEENS_9allocatorIcEEEERNS_13basic_istreamIT_T0_EES9_RNS_12basic_stringIS6_S7_T1_EES6_, symObjAddr: 0x3A60, symBinAddr: 0x1000062B4, symSize: 0x234 }
  - { offsetInCU: 0x8266, offset: 0x8266, size: 0x8, addend: 0x0, symName: __ZNSt3__13maxB7v160006ImEERKT_S3_S3_, symObjAddr: 0x4184, symBinAddr: 0x1000069D8, symSize: 0x2C }
  - { offsetInCU: 0x82A9, offset: 0x82A9, size: 0x8, addend: 0x0, symName: __ZNSt3__13maxB7v160006ImNS_6__lessImmEEEERKT_S5_S5_T0_, symObjAddr: 0x41B0, symBinAddr: 0x100006A04, symSize: 0x54 }
  - { offsetInCU: 0x8303, offset: 0x8303, size: 0x8, addend: 0x0, symName: __ZNSt3__142__uninitialized_allocator_move_if_noexceptB7v160006INS_9allocatorI4TaskEENS_16reverse_iteratorIPS2_EES6_S6_EET2_RT_T0_T1_S7_, symObjAddr: 0x443C, symBinAddr: 0x100006C90, symSize: 0x124 }
  - { offsetInCU: 0x83A3, offset: 0x83A3, size: 0x8, addend: 0x0, symName: __ZNSt3__14swapB7v160006IP4TaskEEvRT_S4_, symObjAddr: 0x4560, symBinAddr: 0x100006DB4, symSize: 0x3C }
  - { offsetInCU: 0x83F4, offset: 0x83F4, size: 0x8, addend: 0x0, symName: __ZNSt3__125__debug_db_invalidate_allB7v160006INS_6vectorI4TaskNS_9allocatorIS2_EEEEEEvPT_, symObjAddr: 0x459C, symBinAddr: 0x100006DF0, symSize: 0x10 }
  - { offsetInCU: 0x8425, offset: 0x8425, size: 0x8, addend: 0x0, symName: __ZNSt3__122__make_exception_guardB7v160006INS_29_AllocatorDestroyRangeReverseINS_9allocatorI4TaskEENS_16reverse_iteratorIPS3_EEEEEENS_28__exception_guard_exceptionsIT_EESA_, symObjAddr: 0x45AC, symBinAddr: 0x100006E00, symSize: 0x4C }
  - { offsetInCU: 0x845B, offset: 0x845B, size: 0x8, addend: 0x0, symName: __ZNSt3__119__allocator_destroyB7v160006INS_9allocatorI4TaskEENS_16reverse_iteratorINS4_IPS2_EEEES7_EEvRT_T0_T1_, symObjAddr: 0x481C, symBinAddr: 0x100007070, symSize: 0x70 }
  - { offsetInCU: 0x84C0, offset: 0x84C0, size: 0x8, addend: 0x0, symName: __ZNSt3__1neB7v160006INS_16reverse_iteratorIP4TaskEES4_EEbRKNS1_IT_EERKNS1_IT0_EE, symObjAddr: 0x48C8, symBinAddr: 0x10000711C, symSize: 0x60 }
  - { offsetInCU: 0x850C, offset: 0x850C, size: 0x8, addend: 0x0, symName: __ZNSt3__112__to_addressB7v160006INS_16reverse_iteratorINS1_IP4TaskEEEEvEENS_5decayIDTclsr19__to_address_helperIT_EE6__callclsr3stdE7declvalIRKS7_EEEEE4typeES9_, symObjAddr: 0x4928, symBinAddr: 0x10000717C, symSize: 0x24 }
  - { offsetInCU: 0x8718, offset: 0x8718, size: 0x8, addend: 0x0, symName: __ZSt28__throw_bad_array_new_lengthB7v160006v, symObjAddr: 0x1254, symBinAddr: 0x100003AA8, symSize: 0x34 }
  - { offsetInCU: 0x8D3E, offset: 0x8D3E, size: 0x8, addend: 0x0, symName: __ZNSt3__16vectorI4TaskNS_9allocatorIS1_EEE26__swap_out_circular_bufferERNS_14__split_bufferIS1_RS3_EE, symObjAddr: 0x4040, symBinAddr: 0x100006894, symSize: 0x118 }
  - { offsetInCU: 0xAF18, offset: 0xAF18, size: 0x8, addend: 0x0, symName: _main, symObjAddr: 0x0, symBinAddr: 0x100002854, symSize: 0x210 }
  - { offsetInCU: 0xAF4F, offset: 0xAF4F, size: 0x8, addend: 0x0, symName: __ZNSt3__16vectorI4TaskNS_9allocatorIS1_EEEC1B7v160006Ev, symObjAddr: 0x220, symBinAddr: 0x100002A74, symSize: 0x2C }
  - { offsetInCU: 0xAF78, offset: 0xAF78, size: 0x8, addend: 0x0, symName: __ZNSt3__113basic_ostreamIcNS_11char_traitsIcEEElsB7v160006EPFRS3_S4_E, symObjAddr: 0x294, symBinAddr: 0x100002AE8, symSize: 0x2C }
  - { offsetInCU: 0xAFAB, offset: 0xAFAB, size: 0x8, addend: 0x0, symName: __Z11displayMenuv, symObjAddr: 0x318, symBinAddr: 0x100002B6C, symSize: 0x94 }
  - { offsetInCU: 0xAFC5, offset: 0xAFC5, size: 0x8, addend: 0x0, symName: __Z7addTaskRNSt3__16vectorI4TaskNS_9allocatorIS1_EEEE, symObjAddr: 0x3AC, symBinAddr: 0x100002C00, symSize: 0x140 }
  - { offsetInCU: 0xAFFC, offset: 0xAFFC, size: 0x8, addend: 0x0, symName: __Z9showTasksNSt3__16vectorI4TaskNS_9allocatorIS1_EEEE, symObjAddr: 0x4EC, symBinAddr: 0x100002D40, symSize: 0x158 }
  - { offsetInCU: 0xB043, offset: 0xB043, size: 0x8, addend: 0x0, symName: __ZNSt3__16vectorI4TaskNS_9allocatorIS1_EEEC1ERKS4_, symObjAddr: 0x644, symBinAddr: 0x100002E98, symSize: 0x34 }
  - { offsetInCU: 0xB07D, offset: 0xB07D, size: 0x8, addend: 0x0, symName: __ZNSt3__16vectorI4TaskNS_9allocatorIS1_EEED1B7v160006Ev, symObjAddr: 0x678, symBinAddr: 0x100002ECC, symSize: 0x2C }
  - { offsetInCU: 0xB0A6, offset: 0xB0A6, size: 0x8, addend: 0x0, symName: __Z15markAsCompletedRNSt3__16vectorI4TaskNS_9allocatorIS1_EEEE, symObjAddr: 0x6B0, symBinAddr: 0x100002F04, symSize: 0x150 }
  - { offsetInCU: 0xB0DD, offset: 0xB0DD, size: 0x8, addend: 0x0, symName: __ZNKSt3__16vectorI4TaskNS_9allocatorIS1_EEE4sizeB7v160006Ev, symObjAddr: 0x800, symBinAddr: 0x100003054, symSize: 0x28 }
  - { offsetInCU: 0xB107, offset: 0xB107, size: 0x8, addend: 0x0, symName: __ZN4TaskC1Ev, symObjAddr: 0x828, symBinAddr: 0x10000307C, symSize: 0x2C }
  - { offsetInCU: 0xB132, offset: 0xB132, size: 0x8, addend: 0x0, symName: __ZNSt3__111char_traitsIcE3eofEv, symObjAddr: 0xB68, symBinAddr: 0x1000033BC, symSize: 0x8 }
  - { offsetInCU: 0xB145, offset: 0xB145, size: 0x8, addend: 0x0, symName: __ZNSt3__16vectorI4TaskNS_9allocatorIS1_EEE9push_backB7v160006ERKS1_, symObjAddr: 0xBCC, symBinAddr: 0x100003420, symSize: 0x6C }
  - { offsetInCU: 0xB17B, offset: 0xB17B, size: 0x8, addend: 0x0, symName: __ZN4TaskD1Ev, symObjAddr: 0xC38, symBinAddr: 0x10000348C, symSize: 0x2C }
  - { offsetInCU: 0xB1A6, offset: 0xB1A6, size: 0x8, addend: 0x0, symName: __ZNSt3__16vectorI4TaskNS_9allocatorIS1_EEEixB7v160006Em, symObjAddr: 0xCB0, symBinAddr: 0x100003504, symSize: 0x2C }
  - { offsetInCU: 0xB1DC, offset: 0xB1DC, size: 0x8, addend: 0x0, symName: __ZN4TaskC2Ev, symObjAddr: 0xCDC, symBinAddr: 0x100003530, symSize: 0x68 }
  - { offsetInCU: 0xB207, offset: 0xB207, size: 0x8, addend: 0x0, symName: __ZNSt3__112basic_stringIcNS_11char_traitsIcEENS_9allocatorIcEEEC1B7v160006Ev, symObjAddr: 0xD44, symBinAddr: 0x100003598, symSize: 0x2C }
  - { offsetInCU: 0xB230, offset: 0xB230, size: 0x8, addend: 0x0, symName: __ZNSt3__112basic_stringIcNS_11char_traitsIcEENS_9allocatorIcEEEC2B7v160006Ev, symObjAddr: 0xD70, symBinAddr: 0x1000035C4, symSize: 0x44 }
  - { offsetInCU: 0xB25E, offset: 0xB25E, size: 0x8, addend: 0x0, symName: __ZNSt3__117__compressed_pairINS_12basic_stringIcNS_11char_traitsIcEENS_9allocatorIcEEE5__repES5_EC1B7v160006INS_18__default_init_tagESA_EEOT_OT0_, symObjAddr: 0xDB4, symBinAddr: 0x100003608, symSize: 0x3C }
  - { offsetInCU: 0xB2B5, offset: 0xB2B5, size: 0x8, addend: 0x0, symName: __ZNSt3__112basic_stringIcNS_11char_traitsIcEENS_9allocatorIcEEE14__default_initB7v160006Ev, symObjAddr: 0xE00, symBinAddr: 0x100003654, symSize: 0xB0 }
  - { offsetInCU: 0xB307, offset: 0xB307, size: 0x8, addend: 0x0, symName: __ZNSt3__117__compressed_pairINS_12basic_stringIcNS_11char_traitsIcEENS_9allocatorIcEEE5__repES5_EC2B7v160006INS_18__default_init_tagESA_EEOT_OT0_, symObjAddr: 0xEB0, symBinAddr: 0x100003704, symSize: 0x3C }
  - { offsetInCU: 0xB35E, offset: 0xB35E, size: 0x8, addend: 0x0, symName: __ZNSt3__122__compressed_pair_elemINS_12basic_stringIcNS_11char_traitsIcEENS_9allocatorIcEEE5__repELi0ELb0EEC2B7v160006ENS_18__default_init_tagE, symObjAddr: 0xEEC, symBinAddr: 0x100003740, symSize: 0x14 }
  - { offsetInCU: 0xB392, offset: 0xB392, size: 0x8, addend: 0x0, symName: __ZNSt3__122__compressed_pair_elemINS_9allocatorIcEELi1ELb1EEC2B7v160006ENS_18__default_init_tagE, symObjAddr: 0xF00, symBinAddr: 0x100003754, symSize: 0x2C }
  - { offsetInCU: 0xB3C6, offset: 0xB3C6, size: 0x8, addend: 0x0, symName: __ZNSt3__19allocatorIcEC2B7v160006Ev, symObjAddr: 0xF2C, symBinAddr: 0x100003780, symSize: 0x2C }
  - { offsetInCU: 0xB3EF, offset: 0xB3EF, size: 0x8, addend: 0x0, symName: __ZNSt3__116__non_trivial_ifILb1ENS_9allocatorIcEEEC2B7v160006Ev, symObjAddr: 0xF58, symBinAddr: 0x1000037AC, symSize: 0x14 }
  - { offsetInCU: 0xB418, offset: 0xB418, size: 0x8, addend: 0x0, symName: __ZNSt3__117__compressed_pairINS_12basic_stringIcNS_11char_traitsIcEENS_9allocatorIcEEE5__repES5_E5firstB7v160006Ev, symObjAddr: 0xF6C, symBinAddr: 0x1000037C0, symSize: 0x24 }
  - { offsetInCU: 0xB43D, offset: 0xB43D, size: 0x8, addend: 0x0, symName: __ZNSt3__112basic_stringIcNS_11char_traitsIcEENS_9allocatorIcEEE11__recommendB7v160006Em, symObjAddr: 0xF9C, symBinAddr: 0x1000037F0, symSize: 0x9C }
  - { offsetInCU: 0xB470, offset: 0xB470, size: 0x8, addend: 0x0, symName: __ZNSt3__116allocator_traitsINS_9allocatorIcEEE8allocateB7v160006ERS2_m, symObjAddr: 0x1038, symBinAddr: 0x10000388C, symSize: 0x2C }
  - { offsetInCU: 0xB4A3, offset: 0xB4A3, size: 0x8, addend: 0x0, symName: __ZNSt3__112basic_stringIcNS_11char_traitsIcEENS_9allocatorIcEEE7__allocB7v160006Ev, symObjAddr: 0x1064, symBinAddr: 0x1000038B8, symSize: 0x24 }
  - { offsetInCU: 0xB4C8, offset: 0xB4C8, size: 0x8, addend: 0x0, symName: __ZNSt3__112basic_stringIcNS_11char_traitsIcEENS_9allocatorIcEEE16__begin_lifetimeB7v160006EPcm, symObjAddr: 0x1088, symBinAddr: 0x1000038DC, symSize: 0x14 }
  - { offsetInCU: 0xB4FB, offset: 0xB4FB, size: 0x8, addend: 0x0, symName: __ZNSt3__112basic_stringIcNS_11char_traitsIcEENS_9allocatorIcEEE18__set_long_pointerB7v160006EPc, symObjAddr: 0x109C, symBinAddr: 0x1000038F0, symSize: 0x38 }
  - { offsetInCU: 0xB52F, offset: 0xB52F, size: 0x8, addend: 0x0, symName: __ZNSt3__112basic_stringIcNS_11char_traitsIcEENS_9allocatorIcEEE14__set_long_capB7v160006Em, symObjAddr: 0x10D4, symBinAddr: 0x100003928, symSize: 0x70 }
  - { offsetInCU: 0xB563, offset: 0xB563, size: 0x8, addend: 0x0, symName: __ZNSt3__112basic_stringIcNS_11char_traitsIcEENS_9allocatorIcEEE15__set_long_sizeB7v160006Em, symObjAddr: 0x1144, symBinAddr: 0x100003998, symSize: 0x38 }
  - { offsetInCU: 0xB597, offset: 0xB597, size: 0x8, addend: 0x0, symName: __ZNSt3__122__compressed_pair_elemINS_12basic_stringIcNS_11char_traitsIcEENS_9allocatorIcEEE5__repELi0ELb0EE5__getB7v160006Ev, symObjAddr: 0x117C, symBinAddr: 0x1000039D0, symSize: 0x14 }
  - { offsetInCU: 0xB5BC, offset: 0xB5BC, size: 0x8, addend: 0x0, symName: __ZNSt3__112basic_stringIcNS_11char_traitsIcEENS_9allocatorIcEEE10__align_itB7v160006ILm16EEEmm, symObjAddr: 0x1190, symBinAddr: 0x1000039E4, symSize: 0x1C }
  - { offsetInCU: 0xB5EA, offset: 0xB5EA, size: 0x8, addend: 0x0, symName: __ZNSt3__19allocatorIcE8allocateB7v160006Em, symObjAddr: 0x11AC, symBinAddr: 0x100003A00, symSize: 0x84 }
  - { offsetInCU: 0xB627, offset: 0xB627, size: 0x8, addend: 0x0, symName: __ZNSt3__116allocator_traitsINS_9allocatorIcEEE8max_sizeB7v160006IS2_vEEmRKS2_, symObjAddr: 0x1230, symBinAddr: 0x100003A84, symSize: 0x24 }
  - { offsetInCU: 0xB655, offset: 0xB655, size: 0x8, addend: 0x0, symName: __ZNKSt3__19allocatorIcE8max_sizeB7v160006Ev, symObjAddr: 0x12B0, symBinAddr: 0x100003B04, symSize: 0x14 }
  - { offsetInCU: 0xB67A, offset: 0xB67A, size: 0x8, addend: 0x0, symName: __ZNSt3__117__compressed_pairINS_12basic_stringIcNS_11char_traitsIcEENS_9allocatorIcEEE5__repES5_E6secondB7v160006Ev, symObjAddr: 0x12E8, symBinAddr: 0x100003B3C, symSize: 0x24 }
  - { offsetInCU: 0xB69F, offset: 0xB69F, size: 0x8, addend: 0x0, symName: __ZNSt3__122__compressed_pair_elemINS_9allocatorIcEELi1ELb1EE5__getB7v160006Ev, symObjAddr: 0x130C, symBinAddr: 0x100003B60, symSize: 0x14 }
  - { offsetInCU: 0xB6C4, offset: 0xB6C4, size: 0x8, addend: 0x0, symName: __ZN4TaskD2Ev, symObjAddr: 0x1320, symBinAddr: 0x100003B74, symSize: 0x68 }
  - { offsetInCU: 0xB6EF, offset: 0xB6EF, size: 0x8, addend: 0x0, symName: __ZNSt3__16vectorI4TaskNS_9allocatorIS1_EEEC2B7v160006Ev, symObjAddr: 0x1388, symBinAddr: 0x100003BDC, symSize: 0x4C }
  - { offsetInCU: 0xB71D, offset: 0xB71D, size: 0x8, addend: 0x0, symName: __ZNSt3__117__compressed_pairIP4TaskNS_9allocatorIS1_EEEC1B7v160006IDnNS_18__default_init_tagEEEOT_OT0_, symObjAddr: 0x13D4, symBinAddr: 0x100003C28, symSize: 0x3C }
  - { offsetInCU: 0xB774, offset: 0xB774, size: 0x8, addend: 0x0, symName: __ZNSt3__117__compressed_pairIP4TaskNS_9allocatorIS1_EEEC2B7v160006IDnNS_18__default_init_tagEEEOT_OT0_, symObjAddr: 0x1420, symBinAddr: 0x100003C74, symSize: 0x40 }
  - { offsetInCU: 0xB7CB, offset: 0xB7CB, size: 0x8, addend: 0x0, symName: __ZNSt3__122__compressed_pair_elemIP4TaskLi0ELb0EEC2B7v160006IDnvEEOT_, symObjAddr: 0x1460, symBinAddr: 0x100003CB4, symSize: 0x1C }
  - { offsetInCU: 0xB80C, offset: 0xB80C, size: 0x8, addend: 0x0, symName: __ZNSt3__122__compressed_pair_elemINS_9allocatorI4TaskEELi1ELb1EEC2B7v160006ENS_18__default_init_tagE, symObjAddr: 0x147C, symBinAddr: 0x100003CD0, symSize: 0x2C }
  - { offsetInCU: 0xB840, offset: 0xB840, size: 0x8, addend: 0x0, symName: __ZNSt3__19allocatorI4TaskEC2B7v160006Ev, symObjAddr: 0x14A8, symBinAddr: 0x100003CFC, symSize: 0x2C }
  - { offsetInCU: 0xB869, offset: 0xB869, size: 0x8, addend: 0x0, symName: __ZNSt3__116__non_trivial_ifILb1ENS_9allocatorI4TaskEEEC2B7v160006Ev, symObjAddr: 0x14D4, symBinAddr: 0x100003D28, symSize: 0x14 }
  - { offsetInCU: 0xB892, offset: 0xB892, size: 0x8, addend: 0x0, symName: __ZNSt3__16vectorI4TaskNS_9allocatorIS1_EEED2B7v160006Ev, symObjAddr: 0x14E8, symBinAddr: 0x100003D3C, symSize: 0x3C }
  - { offsetInCU: 0xB8BB, offset: 0xB8BB, size: 0x8, addend: 0x0, symName: __ZNSt3__16vectorI4TaskNS_9allocatorIS1_EEE16__destroy_vectorC1ERS4_, symObjAddr: 0x1524, symBinAddr: 0x100003D78, symSize: 0x34 }
  - { offsetInCU: 0xB8F3, offset: 0xB8F3, size: 0x8, addend: 0x0, symName: __ZNSt3__16vectorI4TaskNS_9allocatorIS1_EEE16__destroy_vectorclB7v160006Ev, symObjAddr: 0x1558, symBinAddr: 0x100003DAC, symSize: 0x9C }
  - { offsetInCU: 0xB918, offset: 0xB918, size: 0x8, addend: 0x0, symName: __ZNSt3__16vectorI4TaskNS_9allocatorIS1_EEE16__destroy_vectorC2ERS4_, symObjAddr: 0x15F4, symBinAddr: 0x100003E48, symSize: 0x20 }
  - { offsetInCU: 0xB950, offset: 0xB950, size: 0x8, addend: 0x0, symName: __ZNKSt3__16vectorI4TaskNS_9allocatorIS1_EEE17__annotate_deleteB7v160006Ev, symObjAddr: 0x1614, symBinAddr: 0x100003E68, symSize: 0xD4 }
  - { offsetInCU: 0xB975, offset: 0xB975, size: 0x8, addend: 0x0, symName: __ZNSt3__16vectorI4TaskNS_9allocatorIS1_EEE7__clearB7v160006Ev, symObjAddr: 0x16F8, symBinAddr: 0x100003F4C, symSize: 0x28 }
  - { offsetInCU: 0xB99A, offset: 0xB99A, size: 0x8, addend: 0x0, symName: __ZNSt3__116allocator_traitsINS_9allocatorI4TaskEEE10deallocateB7v160006ERS3_PS2_m, symObjAddr: 0x1720, symBinAddr: 0x100003F74, symSize: 0x34 }
  - { offsetInCU: 0xB9DC, offset: 0xB9DC, size: 0x8, addend: 0x0, symName: __ZNSt3__16vectorI4TaskNS_9allocatorIS1_EEE7__allocB7v160006Ev, symObjAddr: 0x1754, symBinAddr: 0x100003FA8, symSize: 0x28 }
  - { offsetInCU: 0xBA01, offset: 0xBA01, size: 0x8, addend: 0x0, symName: __ZNKSt3__16vectorI4TaskNS_9allocatorIS1_EEE8capacityB7v160006Ev, symObjAddr: 0x177C, symBinAddr: 0x100003FD0, symSize: 0x40 }
  - { offsetInCU: 0xBA26, offset: 0xBA26, size: 0x8, addend: 0x0, symName: __ZNKSt3__16vectorI4TaskNS_9allocatorIS1_EEE31__annotate_contiguous_containerB7v160006EPKvS6_S6_S6_, symObjAddr: 0x17BC, symBinAddr: 0x100004010, symSize: 0x20 }
  - { offsetInCU: 0xBA7B, offset: 0xBA7B, size: 0x8, addend: 0x0, symName: __ZNKSt3__16vectorI4TaskNS_9allocatorIS1_EEE4dataB7v160006Ev, symObjAddr: 0x17DC, symBinAddr: 0x100004030, symSize: 0x28 }
  - { offsetInCU: 0xBAA0, offset: 0xBAA0, size: 0x8, addend: 0x0, symName: __ZNSt3__16vectorI4TaskNS_9allocatorIS1_EEE22__base_destruct_at_endB7v160006EPS1_, symObjAddr: 0x1818, symBinAddr: 0x10000406C, symSize: 0xA0 }
  - { offsetInCU: 0xBAE3, offset: 0xBAE3, size: 0x8, addend: 0x0, symName: __ZNSt3__116allocator_traitsINS_9allocatorI4TaskEEE7destroyB7v160006IS2_vEEvRS3_PT_, symObjAddr: 0x18B8, symBinAddr: 0x10000410C, symSize: 0x2C }
  - { offsetInCU: 0xBB20, offset: 0xBB20, size: 0x8, addend: 0x0, symName: __ZNSt3__19allocatorI4TaskE7destroyB7v160006EPS1_, symObjAddr: 0x18E4, symBinAddr: 0x100004138, symSize: 0x28 }
  - { offsetInCU: 0xBB53, offset: 0xBB53, size: 0x8, addend: 0x0, symName: __ZNSt3__19allocatorI4TaskE10deallocateB7v160006EPS1_m, symObjAddr: 0x190C, symBinAddr: 0x100004160, symSize: 0x74 }
  - { offsetInCU: 0xBB94, offset: 0xBB94, size: 0x8, addend: 0x0, symName: __ZNSt3__117__compressed_pairIP4TaskNS_9allocatorIS1_EEE6secondB7v160006Ev, symObjAddr: 0x19FC, symBinAddr: 0x100004250, symSize: 0x24 }
  - { offsetInCU: 0xBBB9, offset: 0xBBB9, size: 0x8, addend: 0x0, symName: __ZNSt3__122__compressed_pair_elemINS_9allocatorI4TaskEELi1ELb1EE5__getB7v160006Ev, symObjAddr: 0x1A20, symBinAddr: 0x100004274, symSize: 0x14 }
  - { offsetInCU: 0xBBDE, offset: 0xBBDE, size: 0x8, addend: 0x0, symName: __ZNKSt3__16vectorI4TaskNS_9allocatorIS1_EEE9__end_capB7v160006Ev, symObjAddr: 0x1A34, symBinAddr: 0x100004288, symSize: 0x28 }
  - { offsetInCU: 0xBC03, offset: 0xBC03, size: 0x8, addend: 0x0, symName: __ZNKSt3__117__compressed_pairIP4TaskNS_9allocatorIS1_EEE5firstB7v160006Ev, symObjAddr: 0x1A5C, symBinAddr: 0x1000042B0, symSize: 0x24 }
  - { offsetInCU: 0xBC28, offset: 0xBC28, size: 0x8, addend: 0x0, symName: __ZNKSt3__122__compressed_pair_elemIP4TaskLi0ELb0EE5__getB7v160006Ev, symObjAddr: 0x1A80, symBinAddr: 0x1000042D4, symSize: 0x14 }
  - { offsetInCU: 0xBC4D, offset: 0xBC4D, size: 0x8, addend: 0x0, symName: __ZNSt3__111char_traitsIcE6lengthEPKc, symObjAddr: 0x1C88, symBinAddr: 0x1000044DC, symSize: 0x48 }
  - { offsetInCU: 0xBC8E, offset: 0xBC8E, size: 0x8, addend: 0x0, symName: __ZNKSt3__113basic_ostreamIcNS_11char_traitsIcEEE6sentrycvbB7v160006Ev, symObjAddr: 0x1CD0, symBinAddr: 0x100004524, symSize: 0x1C }
  - { offsetInCU: 0xBCB3, offset: 0xBCB3, size: 0x8, addend: 0x0, symName: __ZNSt3__119ostreambuf_iteratorIcNS_11char_traitsIcEEEC1B7v160006ERNS_13basic_ostreamIcS2_EE, symObjAddr: 0x1F34, symBinAddr: 0x100004788, symSize: 0x34 }
  - { offsetInCU: 0xBCEA, offset: 0xBCEA, size: 0x8, addend: 0x0, symName: __ZNKSt3__18ios_base5flagsB7v160006Ev, symObjAddr: 0x1F68, symBinAddr: 0x1000047BC, symSize: 0x18 }
  - { offsetInCU: 0xBD10, offset: 0xBD10, size: 0x8, addend: 0x0, symName: __ZNKSt3__19basic_iosIcNS_11char_traitsIcEEE4fillB7v160006Ev, symObjAddr: 0x1F80, symBinAddr: 0x1000047D4, symSize: 0x64 }
  - { offsetInCU: 0xBD37, offset: 0xBD37, size: 0x8, addend: 0x0, symName: __ZNKSt3__119ostreambuf_iteratorIcNS_11char_traitsIcEEE6failedB7v160006Ev, symObjAddr: 0x1FE4, symBinAddr: 0x100004838, symSize: 0x24 }
  - { offsetInCU: 0xBD5C, offset: 0xBD5C, size: 0x8, addend: 0x0, symName: __ZNSt3__19basic_iosIcNS_11char_traitsIcEEE8setstateB7v160006Ej, symObjAddr: 0x2008, symBinAddr: 0x10000485C, symSize: 0x2C }
  - { offsetInCU: 0xBD90, offset: 0xBD90, size: 0x8, addend: 0x0, symName: __ZNKSt3__18ios_base5widthB7v160006Ev, symObjAddr: 0x2034, symBinAddr: 0x100004888, symSize: 0x18 }
  - { offsetInCU: 0xBDB7, offset: 0xBDB7, size: 0x8, addend: 0x0, symName: __ZNSt3__115basic_streambufIcNS_11char_traitsIcEEE5sputnB7v160006EPKcl, symObjAddr: 0x204C, symBinAddr: 0x1000048A0, symSize: 0x3C }
  - { offsetInCU: 0xBDF8, offset: 0xBDF8, size: 0x8, addend: 0x0, symName: __ZNSt3__112basic_stringIcNS_11char_traitsIcEENS_9allocatorIcEEEC1B7v160006Emc, symObjAddr: 0x2088, symBinAddr: 0x1000048DC, symSize: 0x3C }
  - { offsetInCU: 0xBE3F, offset: 0xBE3F, size: 0x8, addend: 0x0, symName: __ZNKSt3__112basic_stringIcNS_11char_traitsIcEENS_9allocatorIcEEE4dataB7v160006Ev, symObjAddr: 0x20C4, symBinAddr: 0x100004918, symSize: 0x28 }
  - { offsetInCU: 0xBE64, offset: 0xBE64, size: 0x8, addend: 0x0, symName: __ZNSt3__18ios_base5widthB7v160006El, symObjAddr: 0x20EC, symBinAddr: 0x100004940, symSize: 0x2C }
  - { offsetInCU: 0xBEA9, offset: 0xBEA9, size: 0x8, addend: 0x0, symName: __ZNSt3__112basic_stringIcNS_11char_traitsIcEENS_9allocatorIcEEEC2B7v160006Emc, symObjAddr: 0x2118, symBinAddr: 0x10000496C, symSize: 0x54 }
  - { offsetInCU: 0xBEF0, offset: 0xBEF0, size: 0x8, addend: 0x0, symName: __ZNKSt3__112basic_stringIcNS_11char_traitsIcEENS_9allocatorIcEEE13__get_pointerB7v160006Ev, symObjAddr: 0x2180, symBinAddr: 0x1000049D4, symSize: 0x54 }
  - { offsetInCU: 0xBF15, offset: 0xBF15, size: 0x8, addend: 0x0, symName: __ZNKSt3__112basic_stringIcNS_11char_traitsIcEENS_9allocatorIcEEE9__is_longB7v160006Ev, symObjAddr: 0x21D4, symBinAddr: 0x100004A28, symSize: 0x74 }
  - { offsetInCU: 0xBF3A, offset: 0xBF3A, size: 0x8, addend: 0x0, symName: __ZNKSt3__112basic_stringIcNS_11char_traitsIcEENS_9allocatorIcEEE18__get_long_pointerB7v160006Ev, symObjAddr: 0x2248, symBinAddr: 0x100004A9C, symSize: 0x28 }
  - { offsetInCU: 0xBF5F, offset: 0xBF5F, size: 0x8, addend: 0x0, symName: __ZNKSt3__112basic_stringIcNS_11char_traitsIcEENS_9allocatorIcEEE19__get_short_pointerB7v160006Ev, symObjAddr: 0x2270, symBinAddr: 0x100004AC4, symSize: 0x28 }
  - { offsetInCU: 0xBF84, offset: 0xBF84, size: 0x8, addend: 0x0, symName: __ZNKSt3__117__compressed_pairINS_12basic_stringIcNS_11char_traitsIcEENS_9allocatorIcEEE5__repES5_E5firstB7v160006Ev, symObjAddr: 0x2298, symBinAddr: 0x100004AEC, symSize: 0x24 }
  - { offsetInCU: 0xBFA9, offset: 0xBFA9, size: 0x8, addend: 0x0, symName: __ZNKSt3__122__compressed_pair_elemINS_12basic_stringIcNS_11char_traitsIcEENS_9allocatorIcEEE5__repELi0ELb0EE5__getB7v160006Ev, symObjAddr: 0x22BC, symBinAddr: 0x100004B10, symSize: 0x14 }
  - { offsetInCU: 0xBFCE, offset: 0xBFCE, size: 0x8, addend: 0x0, symName: __ZNSt3__114pointer_traitsIPKcE10pointer_toB7v160006ERS1_, symObjAddr: 0x22D0, symBinAddr: 0x100004B24, symSize: 0x14 }
  - { offsetInCU: 0xBFF1, offset: 0xBFF1, size: 0x8, addend: 0x0, symName: __ZNSt3__119ostreambuf_iteratorIcNS_11char_traitsIcEEEC2B7v160006ERNS_13basic_ostreamIcS2_EE, symObjAddr: 0x22E4, symBinAddr: 0x100004B38, symSize: 0x68 }
  - { offsetInCU: 0xC027, offset: 0xC027, size: 0x8, addend: 0x0, symName: __ZNKSt3__19basic_iosIcNS_11char_traitsIcEEE5rdbufB7v160006Ev, symObjAddr: 0x234C, symBinAddr: 0x100004BA0, symSize: 0x24 }
  - { offsetInCU: 0xC04E, offset: 0xC04E, size: 0x8, addend: 0x0, symName: __ZNKSt3__18ios_base5rdbufB7v160006Ev, symObjAddr: 0x2370, symBinAddr: 0x100004BC4, symSize: 0x18 }
  - { offsetInCU: 0xC073, offset: 0xC073, size: 0x8, addend: 0x0, symName: __ZNSt3__111char_traitsIcE11eq_int_typeEii, symObjAddr: 0x2388, symBinAddr: 0x100004BDC, symSize: 0x28 }
  - { offsetInCU: 0xC0A3, offset: 0xC0A3, size: 0x8, addend: 0x0, symName: __ZNKSt3__19basic_iosIcNS_11char_traitsIcEEE5widenB7v160006Ec, symObjAddr: 0x23B0, symBinAddr: 0x100004C04, symSize: 0x8C }
  - { offsetInCU: 0xC106, offset: 0xC106, size: 0x8, addend: 0x0, symName: __ZNKSt3__15ctypeIcE5widenB7v160006Ec, symObjAddr: 0x2468, symBinAddr: 0x100004CBC, symSize: 0x38 }
  - { offsetInCU: 0xC139, offset: 0xC139, size: 0x8, addend: 0x0, symName: __ZNSt3__18ios_base8setstateB7v160006Ej, symObjAddr: 0x24A0, symBinAddr: 0x100004CF4, symSize: 0x34 }
  - { offsetInCU: 0xC16F, offset: 0xC16F, size: 0x8, addend: 0x0, symName: __ZNSt3__16vectorI4TaskNS_9allocatorIS1_EEEC2ERKS4_, symObjAddr: 0x24F8, symBinAddr: 0x100004D4C, symSize: 0x118 }
  - { offsetInCU: 0xC1D7, offset: 0xC1D7, size: 0x8, addend: 0x0, symName: __ZNSt3__116allocator_traitsINS_9allocatorI4TaskEEE37select_on_container_copy_constructionB7v160006IS3_vvEES3_RKS3_, symObjAddr: 0x2610, symBinAddr: 0x100004E64, symSize: 0x10 }
  - { offsetInCU: 0xC206, offset: 0xC206, size: 0x8, addend: 0x0, symName: __ZNKSt3__16vectorI4TaskNS_9allocatorIS1_EEE7__allocB7v160006Ev, symObjAddr: 0x2620, symBinAddr: 0x100004E74, symSize: 0x28 }
  - { offsetInCU: 0xC230, offset: 0xC230, size: 0x8, addend: 0x0, symName: __ZNSt3__117__compressed_pairIP4TaskNS_9allocatorIS1_EEEC1B7v160006IDnS4_EEOT_OT0_, symObjAddr: 0x2648, symBinAddr: 0x100004E9C, symSize: 0x3C }
  - { offsetInCU: 0xC287, offset: 0xC287, size: 0x8, addend: 0x0, symName: __ZNSt3__16vectorI4TaskNS_9allocatorIS1_EEE11__vallocateB7v160006Em, symObjAddr: 0x26C4, symBinAddr: 0x100004F18, symSize: 0xB4 }
  - { offsetInCU: 0xC2C9, offset: 0xC2C9, size: 0x8, addend: 0x0, symName: __ZNSt3__16vectorI4TaskNS_9allocatorIS1_EEE18__construct_at_endIPS1_Li0EEEvT_S7_m, symObjAddr: 0x2778, symBinAddr: 0x100004FCC, symSize: 0x94 }
  - { offsetInCU: 0xC33B, offset: 0xC33B, size: 0x8, addend: 0x0, symName: __ZNSt3__128__exception_guard_exceptionsINS_6vectorI4TaskNS_9allocatorIS2_EEE16__destroy_vectorEE10__completeB7v160006Ev, symObjAddr: 0x280C, symBinAddr: 0x100005060, symSize: 0x1C }
  - { offsetInCU: 0xC360, offset: 0xC360, size: 0x8, addend: 0x0, symName: __ZNSt3__128__exception_guard_exceptionsINS_6vectorI4TaskNS_9allocatorIS2_EEE16__destroy_vectorEED1B7v160006Ev, symObjAddr: 0x2828, symBinAddr: 0x10000507C, symSize: 0x2C }
  - { offsetInCU: 0xC389, offset: 0xC389, size: 0x8, addend: 0x0, symName: __ZNKSt3__117__compressed_pairIP4TaskNS_9allocatorIS1_EEE6secondB7v160006Ev, symObjAddr: 0x2854, symBinAddr: 0x1000050A8, symSize: 0x24 }
  - { offsetInCU: 0xC3AE, offset: 0xC3AE, size: 0x8, addend: 0x0, symName: __ZNKSt3__122__compressed_pair_elemINS_9allocatorI4TaskEELi1ELb1EE5__getB7v160006Ev, symObjAddr: 0x2878, symBinAddr: 0x1000050CC, symSize: 0x14 }
  - { offsetInCU: 0xC3D3, offset: 0xC3D3, size: 0x8, addend: 0x0, symName: __ZNSt3__117__compressed_pairIP4TaskNS_9allocatorIS1_EEEC2B7v160006IDnS4_EEOT_OT0_, symObjAddr: 0x288C, symBinAddr: 0x1000050E0, symSize: 0x44 }
  - { offsetInCU: 0xC42A, offset: 0xC42A, size: 0x8, addend: 0x0, symName: __ZNSt3__122__compressed_pair_elemINS_9allocatorI4TaskEELi1ELb1EEC2B7v160006IS3_vEEOT_, symObjAddr: 0x28D0, symBinAddr: 0x100005124, symSize: 0x18 }
  - { offsetInCU: 0xC46B, offset: 0xC46B, size: 0x8, addend: 0x0, symName: __ZNSt3__128__exception_guard_exceptionsINS_6vectorI4TaskNS_9allocatorIS2_EEE16__destroy_vectorEEC1B7v160006ES6_, symObjAddr: 0x28E8, symBinAddr: 0x10000513C, symSize: 0x34 }
  - { offsetInCU: 0xC4A2, offset: 0xC4A2, size: 0x8, addend: 0x0, symName: __ZNSt3__128__exception_guard_exceptionsINS_6vectorI4TaskNS_9allocatorIS2_EEE16__destroy_vectorEEC2B7v160006ES6_, symObjAddr: 0x291C, symBinAddr: 0x100005170, symSize: 0x24 }
  - { offsetInCU: 0xC4D8, offset: 0xC4D8, size: 0x8, addend: 0x0, symName: __ZNKSt3__16vectorI4TaskNS_9allocatorIS1_EEE8max_sizeEv, symObjAddr: 0x2940, symBinAddr: 0x100005194, symSize: 0x74 }
  - { offsetInCU: 0xC4FF, offset: 0xC4FF, size: 0x8, addend: 0x0, symName: __ZNKSt3__16vectorI4TaskNS_9allocatorIS1_EEE20__throw_length_errorB7v160006Ev, symObjAddr: 0x29B4, symBinAddr: 0x100005208, symSize: 0x1C }
  - { offsetInCU: 0xC524, offset: 0xC524, size: 0x8, addend: 0x0, symName: __ZNSt3__16vectorI4TaskNS_9allocatorIS1_EEE9__end_capB7v160006Ev, symObjAddr: 0x2A10, symBinAddr: 0x100005264, symSize: 0x28 }
  - { offsetInCU: 0xC549, offset: 0xC549, size: 0x8, addend: 0x0, symName: __ZNKSt3__16vectorI4TaskNS_9allocatorIS1_EEE14__annotate_newB7v160006Em, symObjAddr: 0x2A38, symBinAddr: 0x10000528C, symSize: 0xC8 }
  - { offsetInCU: 0xC57D, offset: 0xC57D, size: 0x8, addend: 0x0, symName: __ZNSt3__116allocator_traitsINS_9allocatorI4TaskEEE8max_sizeB7v160006IS3_vEEmRKS3_, symObjAddr: 0x2B2C, symBinAddr: 0x100005380, symSize: 0x24 }
  - { offsetInCU: 0xC5AB, offset: 0xC5AB, size: 0x8, addend: 0x0, symName: __ZNSt3__114numeric_limitsIlE3maxB7v160006Ev, symObjAddr: 0x2B50, symBinAddr: 0x1000053A4, symSize: 0x14 }
  - { offsetInCU: 0xC5D3, offset: 0xC5D3, size: 0x8, addend: 0x0, symName: __ZNKSt3__16__lessImmEclB7v160006ERKmS3_, symObjAddr: 0x2BB8, symBinAddr: 0x10000540C, symSize: 0x34 }
  - { offsetInCU: 0xC614, offset: 0xC614, size: 0x8, addend: 0x0, symName: __ZNKSt3__19allocatorI4TaskE8max_sizeB7v160006Ev, symObjAddr: 0x2BEC, symBinAddr: 0x100005440, symSize: 0x20 }
  - { offsetInCU: 0xC639, offset: 0xC639, size: 0x8, addend: 0x0, symName: __ZNSt3__123__libcpp_numeric_limitsIlLb1EE3maxB7v160006Ev, symObjAddr: 0x2C0C, symBinAddr: 0x100005460, symSize: 0x8 }
  - { offsetInCU: 0xC64D, offset: 0xC64D, size: 0x8, addend: 0x0, symName: __ZNSt12length_errorC1B7v160006EPKc, symObjAddr: 0x2C78, symBinAddr: 0x1000054CC, symSize: 0x34 }
  - { offsetInCU: 0xC684, offset: 0xC684, size: 0x8, addend: 0x0, symName: __ZNSt12length_errorC2B7v160006EPKc, symObjAddr: 0x2CAC, symBinAddr: 0x100005500, symSize: 0x4C }
  - { offsetInCU: 0xC6BB, offset: 0xC6BB, size: 0x8, addend: 0x0, symName: __ZNSt3__19allocatorI4TaskE8allocateB7v160006Em, symObjAddr: 0x2CF8, symBinAddr: 0x10000554C, symSize: 0x8C }
  - { offsetInCU: 0xC6EE, offset: 0xC6EE, size: 0x8, addend: 0x0, symName: __ZNSt3__117__compressed_pairIP4TaskNS_9allocatorIS1_EEE5firstB7v160006Ev, symObjAddr: 0x2D84, symBinAddr: 0x1000055D8, symSize: 0x24 }
  - { offsetInCU: 0xC713, offset: 0xC713, size: 0x8, addend: 0x0, symName: __ZNSt3__122__compressed_pair_elemIP4TaskLi0ELb0EE5__getB7v160006Ev, symObjAddr: 0x2DA8, symBinAddr: 0x1000055FC, symSize: 0x14 }
  - { offsetInCU: 0xC751, offset: 0xC751, size: 0x8, addend: 0x0, symName: __ZNSt3__16vectorI4TaskNS_9allocatorIS1_EEE21_ConstructTransactionC1B7v160006ERS4_m, symObjAddr: 0x2DBC, symBinAddr: 0x100005610, symSize: 0x3C }
  - { offsetInCU: 0xC798, offset: 0xC798, size: 0x8, addend: 0x0, symName: __ZNSt3__16vectorI4TaskNS_9allocatorIS1_EEE21_ConstructTransactionD1B7v160006Ev, symObjAddr: 0x2EF4, symBinAddr: 0x100005748, symSize: 0x2C }
  - { offsetInCU: 0xC7C1, offset: 0xC7C1, size: 0x8, addend: 0x0, symName: __ZNSt3__16vectorI4TaskNS_9allocatorIS1_EEE21_ConstructTransactionC2B7v160006ERS4_m, symObjAddr: 0x2F20, symBinAddr: 0x100005774, symSize: 0x4C }
  - { offsetInCU: 0xC808, offset: 0xC808, size: 0x8, addend: 0x0, symName: __ZNSt3__129_AllocatorDestroyRangeReverseINS_9allocatorI4TaskEEPS2_EC1B7v160006ERS3_RS4_S7_, symObjAddr: 0x2FB8, symBinAddr: 0x10000580C, symSize: 0x44 }
  - { offsetInCU: 0xC85E, offset: 0xC85E, size: 0x8, addend: 0x0, symName: __ZNSt3__116allocator_traitsINS_9allocatorI4TaskEEE9constructB7v160006IS2_JRS2_EvEEvRS3_PT_DpOT0_, symObjAddr: 0x2FFC, symBinAddr: 0x100005850, symSize: 0x34 }
  - { offsetInCU: 0xC8B5, offset: 0xC8B5, size: 0x8, addend: 0x0, symName: __ZNSt3__128__exception_guard_exceptionsINS_29_AllocatorDestroyRangeReverseINS_9allocatorI4TaskEEPS3_EEE10__completeB7v160006Ev, symObjAddr: 0x3030, symBinAddr: 0x100005884, symSize: 0x1C }
  - { offsetInCU: 0xC8DA, offset: 0xC8DA, size: 0x8, addend: 0x0, symName: __ZNSt3__128__exception_guard_exceptionsINS_29_AllocatorDestroyRangeReverseINS_9allocatorI4TaskEEPS3_EEED1B7v160006Ev, symObjAddr: 0x304C, symBinAddr: 0x1000058A0, symSize: 0x2C }
  - { offsetInCU: 0xC903, offset: 0xC903, size: 0x8, addend: 0x0, symName: __ZNSt3__128__exception_guard_exceptionsINS_29_AllocatorDestroyRangeReverseINS_9allocatorI4TaskEEPS3_EEEC1B7v160006ES6_, symObjAddr: 0x3078, symBinAddr: 0x1000058CC, symSize: 0x34 }
  - { offsetInCU: 0xC93B, offset: 0xC93B, size: 0x8, addend: 0x0, symName: __ZNSt3__128__exception_guard_exceptionsINS_29_AllocatorDestroyRangeReverseINS_9allocatorI4TaskEEPS3_EEEC2B7v160006ES6_, symObjAddr: 0x30AC, symBinAddr: 0x100005900, symSize: 0x30 }
  - { offsetInCU: 0xC973, offset: 0xC973, size: 0x8, addend: 0x0, symName: __ZNSt3__129_AllocatorDestroyRangeReverseINS_9allocatorI4TaskEEPS2_EC2B7v160006ERS3_RS4_S7_, symObjAddr: 0x30DC, symBinAddr: 0x100005930, symSize: 0x38 }
  - { offsetInCU: 0xC9C9, offset: 0xC9C9, size: 0x8, addend: 0x0, symName: __ZNSt3__19allocatorI4TaskE9constructB7v160006IS1_JRS1_EEEvPT_DpOT0_, symObjAddr: 0x3114, symBinAddr: 0x100005968, symSize: 0x30 }
  - { offsetInCU: 0xCA1E, offset: 0xCA1E, size: 0x8, addend: 0x0, symName: __ZN4TaskC1ERKS_, symObjAddr: 0x3144, symBinAddr: 0x100005998, symSize: 0x34 }
  - { offsetInCU: 0xCA52, offset: 0xCA52, size: 0x8, addend: 0x0, symName: __ZN4TaskC2ERKS_, symObjAddr: 0x3178, symBinAddr: 0x1000059CC, symSize: 0x88 }
  - { offsetInCU: 0xCA86, offset: 0xCA86, size: 0x8, addend: 0x0, symName: __ZNSt3__128__exception_guard_exceptionsINS_29_AllocatorDestroyRangeReverseINS_9allocatorI4TaskEEPS3_EEED2B7v160006Ev, symObjAddr: 0x3200, symBinAddr: 0x100005A54, symSize: 0x48 }
  - { offsetInCU: 0xCAAF, offset: 0xCAAF, size: 0x8, addend: 0x0, symName: __ZNKSt3__129_AllocatorDestroyRangeReverseINS_9allocatorI4TaskEEPS2_EclB7v160006Ev, symObjAddr: 0x3248, symBinAddr: 0x100005A9C, symSize: 0x68 }
  - { offsetInCU: 0xCAD4, offset: 0xCAD4, size: 0x8, addend: 0x0, symName: __ZNSt3__116reverse_iteratorIP4TaskEC1B7v160006ES2_, symObjAddr: 0x3320, symBinAddr: 0x100005B74, symSize: 0x34 }
  - { offsetInCU: 0xCB0B, offset: 0xCB0B, size: 0x8, addend: 0x0, symName: __ZNSt3__116reverse_iteratorIP4TaskEppB7v160006Ev, symObjAddr: 0x33C0, symBinAddr: 0x100005C14, symSize: 0x20 }
  - { offsetInCU: 0xCB30, offset: 0xCB30, size: 0x8, addend: 0x0, symName: __ZNKSt3__116reverse_iteratorIP4TaskE4baseB7v160006Ev, symObjAddr: 0x33E0, symBinAddr: 0x100005C34, symSize: 0x18 }
  - { offsetInCU: 0xCB5A, offset: 0xCB5A, size: 0x8, addend: 0x0, symName: __ZNSt3__119__to_address_helperINS_16reverse_iteratorIP4TaskEEvE6__callB7v160006ERKS4_, symObjAddr: 0x33F8, symBinAddr: 0x100005C4C, symSize: 0x4C }
  - { offsetInCU: 0xCB7D, offset: 0xCB7D, size: 0x8, addend: 0x0, symName: __ZNKSt3__116reverse_iteratorIP4TaskEptB7v160006Ev, symObjAddr: 0x3444, symBinAddr: 0x100005C98, symSize: 0x24 }
  - { offsetInCU: 0xCBA2, offset: 0xCBA2, size: 0x8, addend: 0x0, symName: __ZNKSt3__116reverse_iteratorIP4TaskEdeB7v160006Ev, symObjAddr: 0x3468, symBinAddr: 0x100005CBC, symSize: 0x28 }
  - { offsetInCU: 0xCBD5, offset: 0xCBD5, size: 0x8, addend: 0x0, symName: __ZNSt3__116reverse_iteratorIP4TaskEC2B7v160006ES2_, symObjAddr: 0x3490, symBinAddr: 0x100005CE4, symSize: 0x28 }
  - { offsetInCU: 0xCC0C, offset: 0xCC0C, size: 0x8, addend: 0x0, symName: __ZNSt3__16vectorI4TaskNS_9allocatorIS1_EEE21_ConstructTransactionD2B7v160006Ev, symObjAddr: 0x34B8, symBinAddr: 0x100005D0C, symSize: 0x20 }
  - { offsetInCU: 0xCC35, offset: 0xCC35, size: 0x8, addend: 0x0, symName: __ZNSt3__128__exception_guard_exceptionsINS_6vectorI4TaskNS_9allocatorIS2_EEE16__destroy_vectorEED2B7v160006Ev, symObjAddr: 0x34D8, symBinAddr: 0x100005D2C, symSize: 0x48 }
  - { offsetInCU: 0xCCF0, offset: 0xCCF0, size: 0x8, addend: 0x0, symName: __ZNKSt3__113basic_istreamIcNS_11char_traitsIcEEE6sentrycvbB7v160006Ev, symObjAddr: 0x3520, symBinAddr: 0x100005D74, symSize: 0x1C }
  - { offsetInCU: 0xCD14, offset: 0xCD14, size: 0x8, addend: 0x0, symName: __ZNSt3__112basic_stringIcNS_11char_traitsIcEENS_9allocatorIcEEE5clearB7v160006Ev, symObjAddr: 0x353C, symBinAddr: 0x100005D90, symSize: 0x9C }
  - { offsetInCU: 0xCD3B, offset: 0xCD3B, size: 0x8, addend: 0x0, symName: __ZNKSt3__112basic_stringIcNS_11char_traitsIcEENS_9allocatorIcEEE8max_sizeB7v160006Ev, symObjAddr: 0x35D8, symBinAddr: 0x100005E2C, symSize: 0xAC }
  - { offsetInCU: 0xCD8D, offset: 0xCD8D, size: 0x8, addend: 0x0, symName: __ZNSt3__115basic_streambufIcNS_11char_traitsIcEEE5sgetcB7v160006Ev, symObjAddr: 0x3684, symBinAddr: 0x100005ED8, symSize: 0x70 }
  - { offsetInCU: 0xCDB2, offset: 0xCDB2, size: 0x8, addend: 0x0, symName: __ZNSt3__111char_traitsIcE12to_char_typeEi, symObjAddr: 0x36F4, symBinAddr: 0x100005F48, symSize: 0x18 }
  - { offsetInCU: 0xCDD5, offset: 0xCDD5, size: 0x8, addend: 0x0, symName: __ZNKSt3__15ctypeIcE2isB7v160006Ejc, symObjAddr: 0x370C, symBinAddr: 0x100005F60, symSize: 0x7C }
  - { offsetInCU: 0xCE18, offset: 0xCE18, size: 0x8, addend: 0x0, symName: __ZNSt3__115basic_streambufIcNS_11char_traitsIcEEE6sbumpcB7v160006Ev, symObjAddr: 0x3788, symBinAddr: 0x100005FDC, symSize: 0x78 }
  - { offsetInCU: 0xCE3D, offset: 0xCE3D, size: 0x8, addend: 0x0, symName: __ZNSt3__18ios_base18__setstate_nothrowB7v160006Ej, symObjAddr: 0x3800, symBinAddr: 0x100006054, symSize: 0x64 }
  - { offsetInCU: 0xCE71, offset: 0xCE71, size: 0x8, addend: 0x0, symName: __ZNKSt3__19basic_iosIcNS_11char_traitsIcEEE10exceptionsB7v160006Ev, symObjAddr: 0x3864, symBinAddr: 0x1000060B8, symSize: 0x24 }
  - { offsetInCU: 0xCE96, offset: 0xCE96, size: 0x8, addend: 0x0, symName: __ZNSt3__111char_traitsIcE6assignERcRKc, symObjAddr: 0x3898, symBinAddr: 0x1000060EC, symSize: 0x24 }
  - { offsetInCU: 0xCEC7, offset: 0xCEC7, size: 0x8, addend: 0x0, symName: __ZNSt3__112basic_stringIcNS_11char_traitsIcEENS_9allocatorIcEEE18__get_long_pointerB7v160006Ev, symObjAddr: 0x38BC, symBinAddr: 0x100006110, symSize: 0x28 }
  - { offsetInCU: 0xCEEC, offset: 0xCEEC, size: 0x8, addend: 0x0, symName: __ZNSt3__112basic_stringIcNS_11char_traitsIcEENS_9allocatorIcEEE19__get_short_pointerB7v160006Ev, symObjAddr: 0x38E4, symBinAddr: 0x100006138, symSize: 0x28 }
  - { offsetInCU: 0xCF11, offset: 0xCF11, size: 0x8, addend: 0x0, symName: __ZNSt3__112basic_stringIcNS_11char_traitsIcEENS_9allocatorIcEEE16__set_short_sizeB7v160006Em, symObjAddr: 0x390C, symBinAddr: 0x100006160, symSize: 0x78 }
  - { offsetInCU: 0xCF45, offset: 0xCF45, size: 0x8, addend: 0x0, symName: __ZNSt3__114pointer_traitsIPcE10pointer_toB7v160006ERc, symObjAddr: 0x3984, symBinAddr: 0x1000061D8, symSize: 0x14 }
  - { offsetInCU: 0xCF68, offset: 0xCF68, size: 0x8, addend: 0x0, symName: __ZNKSt3__112basic_stringIcNS_11char_traitsIcEENS_9allocatorIcEEE7__allocB7v160006Ev, symObjAddr: 0x3998, symBinAddr: 0x1000061EC, symSize: 0x24 }
  - { offsetInCU: 0xCF8D, offset: 0xCF8D, size: 0x8, addend: 0x0, symName: __ZNSt3__114numeric_limitsImE3maxB7v160006Ev, symObjAddr: 0x39BC, symBinAddr: 0x100006210, symSize: 0x14 }
  - { offsetInCU: 0xCFA1, offset: 0xCFA1, size: 0x8, addend: 0x0, symName: __ZNKSt3__117__compressed_pairINS_12basic_stringIcNS_11char_traitsIcEENS_9allocatorIcEEE5__repES5_E6secondB7v160006Ev, symObjAddr: 0x39D0, symBinAddr: 0x100006224, symSize: 0x24 }
  - { offsetInCU: 0xCFC6, offset: 0xCFC6, size: 0x8, addend: 0x0, symName: __ZNKSt3__122__compressed_pair_elemINS_9allocatorIcEELi1ELb1EE5__getB7v160006Ev, symObjAddr: 0x39F4, symBinAddr: 0x100006248, symSize: 0x14 }
  - { offsetInCU: 0xCFEB, offset: 0xCFEB, size: 0x8, addend: 0x0, symName: __ZNSt3__123__libcpp_numeric_limitsImLb1EE3maxB7v160006Ev, symObjAddr: 0x3A08, symBinAddr: 0x10000625C, symSize: 0x8 }
  - { offsetInCU: 0xCFFF, offset: 0xCFFF, size: 0x8, addend: 0x0, symName: __ZNSt3__111char_traitsIcE11to_int_typeEc, symObjAddr: 0x3A10, symBinAddr: 0x100006264, symSize: 0x14 }
  - { offsetInCU: 0xD021, offset: 0xD021, size: 0x8, addend: 0x0, symName: __Z7isasciii, symObjAddr: 0x3A24, symBinAddr: 0x100006278, symSize: 0x24 }
  - { offsetInCU: 0xD04E, offset: 0xD04E, size: 0x8, addend: 0x0, symName: __ZNKSt3__18ios_base10exceptionsB7v160006Ev, symObjAddr: 0x3A48, symBinAddr: 0x10000629C, symSize: 0x18 }
  - { offsetInCU: 0xD075, offset: 0xD075, size: 0x8, addend: 0x0, symName: __ZNSt3__111char_traitsIcE2eqEcc, symObjAddr: 0x3C94, symBinAddr: 0x1000064E8, symSize: 0x28 }
  - { offsetInCU: 0xD0A6, offset: 0xD0A6, size: 0x8, addend: 0x0, symName: __ZNKSt3__112basic_stringIcNS_11char_traitsIcEENS_9allocatorIcEEE4sizeB7v160006Ev, symObjAddr: 0x3CBC, symBinAddr: 0x100006510, symSize: 0x54 }
  - { offsetInCU: 0xD0CB, offset: 0xD0CB, size: 0x8, addend: 0x0, symName: __ZNKSt3__112basic_stringIcNS_11char_traitsIcEENS_9allocatorIcEEE15__get_long_sizeB7v160006Ev, symObjAddr: 0x3D10, symBinAddr: 0x100006564, symSize: 0x28 }
  - { offsetInCU: 0xD0F0, offset: 0xD0F0, size: 0x8, addend: 0x0, symName: __ZNKSt3__112basic_stringIcNS_11char_traitsIcEENS_9allocatorIcEEE16__get_short_sizeB7v160006Ev, symObjAddr: 0x3D38, symBinAddr: 0x10000658C, symSize: 0x34 }
  - { offsetInCU: 0xD115, offset: 0xD115, size: 0x8, addend: 0x0, symName: __ZNSt3__16vectorI4TaskNS_9allocatorIS1_EEE22__construct_one_at_endB7v160006IJRKS1_EEEvDpOT_, symObjAddr: 0x3D6C, symBinAddr: 0x1000065C0, symSize: 0x98 }
  - { offsetInCU: 0xD162, offset: 0xD162, size: 0x8, addend: 0x0, symName: __ZNSt3__16vectorI4TaskNS_9allocatorIS1_EEE21__push_back_slow_pathIRKS1_EEvOT_, symObjAddr: 0x3E04, symBinAddr: 0x100006658, symSize: 0xE0 }
  - { offsetInCU: 0xD1BF, offset: 0xD1BF, size: 0x8, addend: 0x0, symName: __ZNSt3__116allocator_traitsINS_9allocatorI4TaskEEE9constructB7v160006IS2_JRKS2_EvEEvRS3_PT_DpOT0_, symObjAddr: 0x3EE4, symBinAddr: 0x100006738, symSize: 0x34 }
  - { offsetInCU: 0xD216, offset: 0xD216, size: 0x8, addend: 0x0, symName: __ZNSt3__19allocatorI4TaskE9constructB7v160006IS1_JRKS1_EEEvPT_DpOT0_, symObjAddr: 0x3F18, symBinAddr: 0x10000676C, symSize: 0x30 }
  - { offsetInCU: 0xD26A, offset: 0xD26A, size: 0x8, addend: 0x0, symName: __ZNKSt3__16vectorI4TaskNS_9allocatorIS1_EEE11__recommendB7v160006Em, symObjAddr: 0x3F48, symBinAddr: 0x10000679C, symSize: 0xB4 }
  - { offsetInCU: 0xD2BE, offset: 0xD2BE, size: 0x8, addend: 0x0, symName: __ZNSt3__114__split_bufferI4TaskRNS_9allocatorIS1_EEEC1EmmS4_, symObjAddr: 0x3FFC, symBinAddr: 0x100006850, symSize: 0x44 }
  - { offsetInCU: 0xD313, offset: 0xD313, size: 0x8, addend: 0x0, symName: __ZNSt3__114__split_bufferI4TaskRNS_9allocatorIS1_EEED1Ev, symObjAddr: 0x4158, symBinAddr: 0x1000069AC, symSize: 0x2C }
  - { offsetInCU: 0xD33E, offset: 0xD33E, size: 0x8, addend: 0x0, symName: __ZNSt3__114__split_bufferI4TaskRNS_9allocatorIS1_EEEC2EmmS4_, symObjAddr: 0x4204, symBinAddr: 0x100006A58, symSize: 0xE0 }
  - { offsetInCU: 0xD3B1, offset: 0xD3B1, size: 0x8, addend: 0x0, symName: __ZNSt3__117__compressed_pairIP4TaskRNS_9allocatorIS1_EEEC1B7v160006IDnS5_EEOT_OT0_, symObjAddr: 0x42E4, symBinAddr: 0x100006B38, symSize: 0x3C }
  - { offsetInCU: 0xD408, offset: 0xD408, size: 0x8, addend: 0x0, symName: __ZNSt3__114__split_bufferI4TaskRNS_9allocatorIS1_EEE7__allocB7v160006Ev, symObjAddr: 0x4320, symBinAddr: 0x100006B74, symSize: 0x28 }
  - { offsetInCU: 0xD42D, offset: 0xD42D, size: 0x8, addend: 0x0, symName: __ZNSt3__114__split_bufferI4TaskRNS_9allocatorIS1_EEE9__end_capB7v160006Ev, symObjAddr: 0x4348, symBinAddr: 0x100006B9C, symSize: 0x28 }
  - { offsetInCU: 0xD452, offset: 0xD452, size: 0x8, addend: 0x0, symName: __ZNSt3__117__compressed_pairIP4TaskRNS_9allocatorIS1_EEEC2B7v160006IDnS5_EEOT_OT0_, symObjAddr: 0x4370, symBinAddr: 0x100006BC4, symSize: 0x48 }
  - { offsetInCU: 0xD4A9, offset: 0xD4A9, size: 0x8, addend: 0x0, symName: __ZNSt3__122__compressed_pair_elemIRNS_9allocatorI4TaskEELi1ELb0EEC2B7v160006IS4_vEEOT_, symObjAddr: 0x43B8, symBinAddr: 0x100006C0C, symSize: 0x20 }
  - { offsetInCU: 0xD4EA, offset: 0xD4EA, size: 0x8, addend: 0x0, symName: __ZNSt3__117__compressed_pairIP4TaskRNS_9allocatorIS1_EEE6secondB7v160006Ev, symObjAddr: 0x43D8, symBinAddr: 0x100006C2C, symSize: 0x28 }
  - { offsetInCU: 0xD50F, offset: 0xD50F, size: 0x8, addend: 0x0, symName: __ZNSt3__122__compressed_pair_elemIRNS_9allocatorI4TaskEELi1ELb0EE5__getB7v160006Ev, symObjAddr: 0x4400, symBinAddr: 0x100006C54, symSize: 0x18 }
  - { offsetInCU: 0xD534, offset: 0xD534, size: 0x8, addend: 0x0, symName: __ZNSt3__117__compressed_pairIP4TaskRNS_9allocatorIS1_EEE5firstB7v160006Ev, symObjAddr: 0x4418, symBinAddr: 0x100006C6C, symSize: 0x24 }
  - { offsetInCU: 0xD559, offset: 0xD559, size: 0x8, addend: 0x0, symName: __ZNSt3__129_AllocatorDestroyRangeReverseINS_9allocatorI4TaskEENS_16reverse_iteratorIPS2_EEEC1B7v160006ERS3_RS6_S9_, symObjAddr: 0x45F8, symBinAddr: 0x100006E4C, symSize: 0x44 }
  - { offsetInCU: 0xD5AF, offset: 0xD5AF, size: 0x8, addend: 0x0, symName: __ZNSt3__128__exception_guard_exceptionsINS_29_AllocatorDestroyRangeReverseINS_9allocatorI4TaskEENS_16reverse_iteratorIPS3_EEEEE10__completeB7v160006Ev, symObjAddr: 0x463C, symBinAddr: 0x100006E90, symSize: 0x1C }
  - { offsetInCU: 0xD5D4, offset: 0xD5D4, size: 0x8, addend: 0x0, symName: __ZNSt3__128__exception_guard_exceptionsINS_29_AllocatorDestroyRangeReverseINS_9allocatorI4TaskEENS_16reverse_iteratorIPS3_EEEEED1B7v160006Ev, symObjAddr: 0x4658, symBinAddr: 0x100006EAC, symSize: 0x2C }
  - { offsetInCU: 0xD5FD, offset: 0xD5FD, size: 0x8, addend: 0x0, symName: __ZNSt3__128__exception_guard_exceptionsINS_29_AllocatorDestroyRangeReverseINS_9allocatorI4TaskEENS_16reverse_iteratorIPS3_EEEEEC1B7v160006ES8_, symObjAddr: 0x4684, symBinAddr: 0x100006ED8, symSize: 0x34 }
  - { offsetInCU: 0xD635, offset: 0xD635, size: 0x8, addend: 0x0, symName: __ZNSt3__128__exception_guard_exceptionsINS_29_AllocatorDestroyRangeReverseINS_9allocatorI4TaskEENS_16reverse_iteratorIPS3_EEEEEC2B7v160006ES8_, symObjAddr: 0x46B8, symBinAddr: 0x100006F0C, symSize: 0x30 }
  - { offsetInCU: 0xD66D, offset: 0xD66D, size: 0x8, addend: 0x0, symName: __ZNSt3__129_AllocatorDestroyRangeReverseINS_9allocatorI4TaskEENS_16reverse_iteratorIPS2_EEEC2B7v160006ERS3_RS6_S9_, symObjAddr: 0x46E8, symBinAddr: 0x100006F3C, symSize: 0x38 }
  - { offsetInCU: 0xD6C3, offset: 0xD6C3, size: 0x8, addend: 0x0, symName: __ZNSt3__128__exception_guard_exceptionsINS_29_AllocatorDestroyRangeReverseINS_9allocatorI4TaskEENS_16reverse_iteratorIPS3_EEEEED2B7v160006Ev, symObjAddr: 0x4720, symBinAddr: 0x100006F74, symSize: 0x48 }
  - { offsetInCU: 0xD6EC, offset: 0xD6EC, size: 0x8, addend: 0x0, symName: __ZNKSt3__129_AllocatorDestroyRangeReverseINS_9allocatorI4TaskEENS_16reverse_iteratorIPS2_EEEclB7v160006Ev, symObjAddr: 0x4768, symBinAddr: 0x100006FBC, symSize: 0xB4 }
  - { offsetInCU: 0xD712, offset: 0xD712, size: 0x8, addend: 0x0, symName: __ZNSt3__116reverse_iteratorINS0_IP4TaskEEEC1B7v160006ES3_, symObjAddr: 0x488C, symBinAddr: 0x1000070E0, symSize: 0x3C }
  - { offsetInCU: 0xD749, offset: 0xD749, size: 0x8, addend: 0x0, symName: __ZNSt3__116reverse_iteratorINS0_IP4TaskEEEppB7v160006Ev, symObjAddr: 0x494C, symBinAddr: 0x1000071A0, symSize: 0x30 }
  - { offsetInCU: 0xD76E, offset: 0xD76E, size: 0x8, addend: 0x0, symName: __ZNKSt3__116reverse_iteratorINS0_IP4TaskEEE4baseB7v160006Ev, symObjAddr: 0x497C, symBinAddr: 0x1000071D0, symSize: 0x24 }
  - { offsetInCU: 0xD798, offset: 0xD798, size: 0x8, addend: 0x0, symName: __ZNSt3__119__to_address_helperINS_16reverse_iteratorINS1_IP4TaskEEEEvE6__callB7v160006ERKS5_, symObjAddr: 0x49A0, symBinAddr: 0x1000071F4, symSize: 0x4C }
  - { offsetInCU: 0xD7BB, offset: 0xD7BB, size: 0x8, addend: 0x0, symName: __ZNKSt3__116reverse_iteratorINS0_IP4TaskEEEptB7v160006Ev, symObjAddr: 0x49EC, symBinAddr: 0x100007240, symSize: 0x24 }
  - { offsetInCU: 0xD7E0, offset: 0xD7E0, size: 0x8, addend: 0x0, symName: __ZNKSt3__116reverse_iteratorINS0_IP4TaskEEEdeB7v160006Ev, symObjAddr: 0x4A10, symBinAddr: 0x100007264, symSize: 0x34 }
  - { offsetInCU: 0xD813, offset: 0xD813, size: 0x8, addend: 0x0, symName: __ZNSt3__116reverse_iteratorIP4TaskEmmB7v160006Ev, symObjAddr: 0x4A44, symBinAddr: 0x100007298, symSize: 0x20 }
  - { offsetInCU: 0xD838, offset: 0xD838, size: 0x8, addend: 0x0, symName: __ZNSt3__116reverse_iteratorINS0_IP4TaskEEEC2B7v160006ES3_, symObjAddr: 0x4A64, symBinAddr: 0x1000072B8, symSize: 0x2C }
  - { offsetInCU: 0xD86F, offset: 0xD86F, size: 0x8, addend: 0x0, symName: __ZNSt3__114__split_bufferI4TaskRNS_9allocatorIS1_EEED2Ev, symObjAddr: 0x4A90, symBinAddr: 0x1000072E4, symSize: 0x80 }
  - { offsetInCU: 0xD89A, offset: 0xD89A, size: 0x8, addend: 0x0, symName: __ZNSt3__114__split_bufferI4TaskRNS_9allocatorIS1_EEE5clearB7v160006Ev, symObjAddr: 0x4B10, symBinAddr: 0x100007364, symSize: 0x28 }
  - { offsetInCU: 0xD8BF, offset: 0xD8BF, size: 0x8, addend: 0x0, symName: __ZNKSt3__114__split_bufferI4TaskRNS_9allocatorIS1_EEE8capacityB7v160006Ev, symObjAddr: 0x4B38, symBinAddr: 0x10000738C, symSize: 0x40 }
  - { offsetInCU: 0xD8E4, offset: 0xD8E4, size: 0x8, addend: 0x0, symName: __ZNSt3__114__split_bufferI4TaskRNS_9allocatorIS1_EEE17__destruct_at_endB7v160006EPS1_, symObjAddr: 0x4B78, symBinAddr: 0x1000073CC, symSize: 0x2C }
  - { offsetInCU: 0xD916, offset: 0xD916, size: 0x8, addend: 0x0, symName: __ZNSt3__114__split_bufferI4TaskRNS_9allocatorIS1_EEE17__destruct_at_endB7v160006EPS1_NS_17integral_constantIbLb0EEE, symObjAddr: 0x4BA4, symBinAddr: 0x1000073F8, symSize: 0x94 }
  - { offsetInCU: 0xD956, offset: 0xD956, size: 0x8, addend: 0x0, symName: __ZNKSt3__114__split_bufferI4TaskRNS_9allocatorIS1_EEE9__end_capB7v160006Ev, symObjAddr: 0x4C38, symBinAddr: 0x10000748C, symSize: 0x28 }
  - { offsetInCU: 0xD97B, offset: 0xD97B, size: 0x8, addend: 0x0, symName: __ZNKSt3__117__compressed_pairIP4TaskRNS_9allocatorIS1_EEE5firstB7v160006Ev, symObjAddr: 0x4C60, symBinAddr: 0x1000074B4, symSize: 0x24 }
...
